target datalayout = "e-m:e-p270:32:32-p271:32:32-p272:64:64-i64:64-i128:128-f80:128-n8:16:32:64-S128"
target triple = "x86_64-pc-linux-gnu"

%struct.gmx_pme_t = type { i32, i32, i32, i32, i32, i32, i32, ptr, [2 x ptr], ptr, i8, i32, i8, i8, i8, i8, i8, i8, i32, i32, i32, i8, i32, float, float, float, i32, float, i32, ptr, %"class.std::unique_ptr.61", i32, i32, i32, i32, i32, i32, i32, i32, %"class.std::unique_ptr.69", %"class.std::shared_ptr", %"class.std::vector.77", %"class.std::vector.77", %"class.std::vector.82", %"class.std::vector.87", %"class.std::vector.92", %"class.std::vector.92", %"class.std::vector.92", %"class.std::vector.97", %"class.std::vector.97", %"class.std::vector.97", %"class.std::vector.102", [3 x [3 x float]], float, %"struct.std::array", %"class.std::vector.107", %"class.std::vector.107", %"struct.std::array.109", %"class.std::unique_ptr.115", %"class.std::vector.123", %"class.std::vector.97", %"class.std::unique_ptr.128" }
%"class.std::unique_ptr.61" = type { %"struct.std::__uniq_ptr_data.62" }
%"struct.std::__uniq_ptr_data.62" = type { %"class.std::__uniq_ptr_impl.63" }
%"class.std::__uniq_ptr_impl.63" = type { %"class.std::tuple.64" }
%"class.std::tuple.64" = type { %"struct.std::_Tuple_impl.65" }
%"struct.std::_Tuple_impl.65" = type { %"struct.std::_Head_base.68" }
%"struct.std::_Head_base.68" = type { ptr }
%"class.std::unique_ptr.69" = type { %"struct.std::__uniq_ptr_data.70" }
%"struct.std::__uniq_ptr_data.70" = type { %"class.std::__uniq_ptr_impl.71" }
%"class.std::__uniq_ptr_impl.71" = type { %"class.std::tuple.72" }
%"class.std::tuple.72" = type { %"struct.std::_Tuple_impl.73" }
%"struct.std::_Tuple_impl.73" = type { %"struct.std::_Head_base.76" }
%"struct.std::_Head_base.76" = type { ptr }
%"class.std::shared_ptr" = type { %"class.std::__shared_ptr" }
%"class.std::__shared_ptr" = type { ptr, %"class.std::__shared_count" }
%"class.std::__shared_count" = type { ptr }
%"class.std::vector.77" = type { %"struct.std::_Vector_base.78" }
%"struct.std::_Vector_base.78" = type { %"struct.std::_Vector_base<PmeAndFftGrids, std::allocator<PmeAndFftGrids>>::_Vector_impl" }
%"struct.std::_Vector_base<PmeAndFftGrids, std::allocator<PmeAndFftGrids>>::_Vector_impl" = type { %"struct.std::_Vector_base<PmeAndFftGrids, std::allocator<PmeAndFftGrids>>::_Vector_impl_data" }
%"struct.std::_Vector_base<PmeAndFftGrids, std::allocator<PmeAndFftGrids>>::_Vector_impl_data" = type { ptr, ptr, ptr }
%"class.std::vector.82" = type { %"struct.std::_Vector_base.83" }
%"struct.std::_Vector_base.83" = type { %"struct.std::_Vector_base<gmx_pme_t::GridsRef, std::allocator<gmx_pme_t::GridsRef>>::_Vector_impl" }
%"struct.std::_Vector_base<gmx_pme_t::GridsRef, std::allocator<gmx_pme_t::GridsRef>>::_Vector_impl" = type { %"struct.std::_Vector_base<gmx_pme_t::GridsRef, std::allocator<gmx_pme_t::GridsRef>>::_Vector_impl_data" }
%"struct.std::_Vector_base<gmx_pme_t::GridsRef, std::allocator<gmx_pme_t::GridsRef>>::_Vector_impl_data" = type { ptr, ptr, ptr }
%"class.std::vector.87" = type { %"struct.std::_Vector_base.88" }
%"struct.std::_Vector_base.88" = type { %"struct.std::_Vector_base<t_complex *, std::allocator<t_complex *>>::_Vector_impl" }
%"struct.std::_Vector_base<t_complex *, std::allocator<t_complex *>>::_Vector_impl" = type { %"struct.std::_Vector_base<t_complex *, std::allocator<t_complex *>>::_Vector_impl_data" }
%"struct.std::_Vector_base<t_complex *, std::allocator<t_complex *>>::_Vector_impl_data" = type { ptr, ptr, ptr }
%"class.std::vector.92" = type { %"struct.std::_Vector_base.93" }
%"struct.std::_Vector_base.93" = type { %"struct.std::_Vector_base<int, std::allocator<int>>::_Vector_impl" }
%"struct.std::_Vector_base<int, std::allocator<int>>::_Vector_impl" = type { %"struct.std::_Vector_base<int, std::allocator<int>>::_Vector_impl_data" }
%"struct.std::_Vector_base<int, std::allocator<int>>::_Vector_impl_data" = type { ptr, ptr, ptr }
%"class.std::vector.102" = type { %"struct.std::_Vector_base.103" }
%"struct.std::_Vector_base.103" = type { %"struct.std::_Vector_base<PmeAtomComm, std::allocator<PmeAtomComm>>::_Vector_impl" }
%"struct.std::_Vector_base<PmeAtomComm, std::allocator<PmeAtomComm>>::_Vector_impl" = type { %"struct.std::_Vector_base<PmeAtomComm, std::allocator<PmeAtomComm>>::_Vector_impl_data" }
%"struct.std::_Vector_base<PmeAtomComm, std::allocator<PmeAtomComm>>::_Vector_impl_data" = type { ptr, ptr, ptr }
%"struct.std::array" = type { [3 x %"class.std::vector.97"] }
%"class.std::vector.107" = type { %"struct.std::_Vector_base.108" }
%"struct.std::_Vector_base.108" = type { %"struct.std::_Vector_base<float, gmx::DefaultInitializationAllocator<float>>::_Vector_impl" }
%"struct.std::_Vector_base<float, gmx::DefaultInitializationAllocator<float>>::_Vector_impl" = type { %"struct.std::_Vector_base<float, gmx::DefaultInitializationAllocator<float>>::_Vector_impl_data" }
%"struct.std::_Vector_base<float, gmx::DefaultInitializationAllocator<float>>::_Vector_impl_data" = type { ptr, ptr, ptr }
%"struct.std::array.109" = type { [2 x %struct.pme_overlap_t] }
%struct.pme_overlap_t = type { ptr, i32, i32, %"class.std::vector.92", %"class.std::vector.92", i32, %"class.std::vector.110", %"class.std::vector.97", %"class.std::vector.97" }
%"class.std::vector.110" = type { %"struct.std::_Vector_base.111" }
%"struct.std::_Vector_base.111" = type { %"struct.std::_Vector_base<pme_grid_comm_t, std::allocator<pme_grid_comm_t>>::_Vector_impl" }
%"struct.std::_Vector_base<pme_grid_comm_t, std::allocator<pme_grid_comm_t>>::_Vector_impl" = type { %"struct.std::_Vector_base<pme_grid_comm_t, std::allocator<pme_grid_comm_t>>::_Vector_impl_data" }
%"struct.std::_Vector_base<pme_grid_comm_t, std::allocator<pme_grid_comm_t>>::_Vector_impl_data" = type { ptr, ptr, ptr }
%"class.std::unique_ptr.115" = type { %"struct.std::__uniq_ptr_data.116" }
%"struct.std::__uniq_ptr_data.116" = type { %"class.std::__uniq_ptr_impl.117" }
%"class.std::__uniq_ptr_impl.117" = type { %"class.std::tuple.118" }
%"class.std::tuple.118" = type { %"struct.std::_Tuple_impl.119" }
%"struct.std::_Tuple_impl.119" = type { %"struct.std::_Head_base.122" }
%"struct.std::_Head_base.122" = type { ptr }
%"class.std::vector.123" = type { %"struct.std::_Vector_base.124" }
%"struct.std::_Vector_base.124" = type { %"struct.std::_Vector_base<gmx::BasicVector<float>, std::allocator<gmx::BasicVector<float>>>::_Vector_impl" }
%"struct.std::_Vector_base<gmx::BasicVector<float>, std::allocator<gmx::BasicVector<float>>>::_Vector_impl" = type { %"struct.std::_Vector_base<gmx::BasicVector<float>, std::allocator<gmx::BasicVector<float>>>::_Vector_impl_data" }
%"struct.std::_Vector_base<gmx::BasicVector<float>, std::allocator<gmx::BasicVector<float>>>::_Vector_impl_data" = type { ptr, ptr, ptr }
%"class.std::vector.97" = type { %"struct.std::_Vector_base.98" }
%"struct.std::_Vector_base.98" = type { %"struct.std::_Vector_base<float, std::allocator<float>>::_Vector_impl" }
%"struct.std::_Vector_base<float, std::allocator<float>>::_Vector_impl" = type { %"struct.std::_Vector_base<float, std::allocator<float>>::_Vector_impl_data" }
%"struct.std::_Vector_base<float, std::allocator<float>>::_Vector_impl_data" = type { ptr, ptr, ptr }
%"class.std::unique_ptr.128" = type { %"struct.std::__uniq_ptr_data.129" }
%"struct.std::__uniq_ptr_data.129" = type { %"class.std::__uniq_ptr_impl.130" }
%"class.std::__uniq_ptr_impl.130" = type { %"class.std::tuple.131" }
%"class.std::tuple.131" = type { %"struct.std::_Tuple_impl.132" }
%"struct.std::_Tuple_impl.132" = type { %"struct.std::_Head_base.135" }
%"struct.std::_Head_base.135" = type { ptr }

; Function Attrs: mustprogress nounwind uwtable
define internal void @_ZL15pme_gpu_destroyP6PmeGpu(ptr noundef %0) #3 {
  %2 = alloca ptr, align 8
  store ptr %0, ptr %2, align 8
  ret void
}

; Function Attrs: mustprogress uwtable
define void @_Z15gmx_pme_destroyP9gmx_pme_tb(ptr noundef %0, i1 noundef zeroext %1) #0 {
  %3 = alloca ptr, align 8
  %4 = alloca i8, align 1
  store ptr %0, ptr %3, align 8
  %5 = zext i1 %1 to i8
  store i8 %5, ptr %4, align 1
  %6 = load ptr, ptr %3, align 8
  %7 = icmp ne ptr %6, null
  br i1 %7, label %9, label %8

8:                                                ; preds = %2
  br label %25

9:                                                ; preds = %2
  %10 = load ptr, ptr %3, align 8
  %11 = getelementptr inbounds %struct.gmx_pme_t, ptr %10, i32 0, i32 29
  %12 = load ptr, ptr %11, align 8
  %13 = icmp ne ptr %12, null
  br i1 %13, label %14, label %21

14:                                               ; preds = %9
  %15 = load i8, ptr %4, align 1
  %16 = trunc i8 %15 to i1
  br i1 %16, label %17, label %21

17:                                               ; preds = %14
  %18 = load ptr, ptr %3, align 8
  %19 = getelementptr inbounds %struct.gmx_pme_t, ptr %18, i32 0, i32 29
  %20 = load ptr, ptr %19, align 8
  call void @_ZL15pme_gpu_destroyP6PmeGpu(ptr noundef %20)
  br label %21

21:                                               ; preds = %17, %14, %9
  %22 = load ptr, ptr %3, align 8
  %23 = icmp eq ptr %22, null
  br i1 %23, label %25, label %24

24:                                               ; preds = %21
  call void @_ZN9gmx_pme_tD2Ev(ptr noundef nonnull align 8 dereferenceable(976) %22) #5
  call void @_ZdlPv(ptr noundef %22) #19
  br label %25

25:                                               ; preds = %24, %21, %8
  ret void
}