; Function Attrs: mustprogress nounwind uwtable
define void @_Z15gmx_pme_destroyP9gmx_pme_tb(ptr noundef %0, i1 noundef zeroext %1) local_unnamed_addr #11 {
  %.not = icmp eq ptr %0, null
  br i1 %.not, label %4, label %3

3:                                                ; preds = %2
  tail call void @_ZN9gmx_pme_tD2Ev(ptr noundef nonnull align 8 dereferenceable(976) %0) #7
  tail call void @_ZdlPv(ptr noundef nonnull %0) #27
  br label %4

4:                                                ; preds = %2, %3
  ret void
}